; Function Attrs: mustprogress nounwind uwtable
define internal fastcc void @_ZNSt10unique_ptrIN12_GLOBAL__N_115TextFileHandlerESt14default_deleteIS1_EED2Ev(ptr nocapture noundef nonnull align 8 dereferenceable(8) %0) unnamed_addr #3 align 2 {
  %2 = load ptr, ptr %0, align 8
  %.not = icmp eq ptr %2, null
  br i1 %.not, label %5, label %_ZNKSt14default_deleteIN12_GLOBAL__N_115TextFileHandlerEEclEPS1_.exit

_ZNKSt14default_deleteIN12_GLOBAL__N_115TextFileHandlerEEclEPS1_.exit: ; preds = %1
  %3 = getelementptr inbounds nuw i8, ptr %2, i64 56
  tail call void @_ZNSt7__cxx1112basic_stringIcSt11char_traitsIcESaIcEED1Ev(ptr noundef nonnull align 8 dereferenceable(32) %3) #24
  %4 = getelementptr inbounds nuw i8, ptr %2, i64 24
  tail call void @_ZNSt7__cxx1112basic_stringIcSt11char_traitsIcESaIcEED1Ev(ptr noundef nonnull align 8 dereferenceable(32) %4) #24
  tail call void @_ZdlPvm(ptr noundef nonnull %2, i64 noundef 96) #29
  br label %5

5:                                                ; preds = %_ZNKSt14default_deleteIN12_GLOBAL__N_115TextFileHandlerEEclEPS1_.exit, %1
  store ptr null, ptr %0, align 8
  ret void
}